target datalayout = "e-m:e-p270:32:32-p271:32:32-p272:64:64-i64:64-i128:128-f80:128-n8:16:32:64-S128"
target triple = "x86_64-pc-linux-gnu"

@.str = private unnamed_addr constant [25 x i8] c"../openssl/test/ectest.c\00", align 1
@.str.23 = private unnamed_addr constant [50 x i8] c"group = EC_GROUP_new_by_curve_name(NID_secp384r1)\00", align 1
@.str.24 = private unnamed_addr constant [54 x i8] c"ecparameters = EC_GROUP_get_ecparameters(group, NULL)\00", align 1
@.str.25 = private unnamed_addr constant [54 x i8] c"group2 = EC_GROUP_new_from_ecparameters(ecparameters)\00", align 1
@.str.26 = private unnamed_addr constant [34 x i8] c"EC_GROUP_cmp(group, group2, NULL)\00", align 1
@.str.27 = private unnamed_addr constant [2 x i8] c"0\00", align 1
@.str.28 = private unnamed_addr constant [50 x i8] c"group = EC_GROUP_new_by_curve_name(NID_secp521r1)\00", align 1
@.str.29 = private unnamed_addr constant [45 x i8] c"(len = i2d_ECPKParameters(group, &buf)) >= 0\00", align 1
@.str.30 = private unnamed_addr constant [4 x i8] c"buf\00", align 1
@.str.31 = private unnamed_addr constant [11 x i8] c"p521_named\00", align 1
@p521_named = internal constant [7 x i8] c"\06\05+\81\04\00#", align 1
@.str.32 = private unnamed_addr constant [14 x i8] c"p521_explicit\00", align 1

; Function Attrs: nounwind uwtable
define internal i32 @parameter_test() #0 {
  %1 = alloca ptr, align 8
  %2 = alloca ptr, align 8
  %3 = alloca ptr, align 8
  %4 = alloca ptr, align 8
  %5 = alloca i32, align 4
  %6 = alloca i32, align 4
  call void @llvm.lifetime.start.p0(i64 8, ptr %1) #7
  store ptr null, ptr %1, align 8, !tbaa !10
  call void @llvm.lifetime.start.p0(i64 8, ptr %2) #7
  store ptr null, ptr %2, align 8, !tbaa !10
  call void @llvm.lifetime.start.p0(i64 8, ptr %3) #7
  store ptr null, ptr %3, align 8, !tbaa !12
  call void @llvm.lifetime.start.p0(i64 8, ptr %4) #7
  store ptr null, ptr %4, align 8, !tbaa !14
  call void @llvm.lifetime.start.p0(i64 4, ptr %5) #7
  store i32 0, ptr %5, align 4, !tbaa !16
  call void @llvm.lifetime.start.p0(i64 4, ptr %6) #7
  %7 = call ptr @EC_GROUP_new_by_curve_name(i32 noundef 715)
  store ptr %7, ptr %1, align 8, !tbaa !10
  %8 = call i32 @test_ptr(ptr noundef @.str, i32 noundef 2021, ptr noundef @.str.23, ptr noundef %7)
  %9 = icmp ne i32 %8, 0
  br i1 %9, label %10, label %26

10:                                               ; preds = %0
  %11 = load ptr, ptr %1, align 8, !tbaa !10
  %12 = call ptr @EC_GROUP_get_ecparameters(ptr noundef %11, ptr noundef null)
  store ptr %12, ptr %3, align 8, !tbaa !12
  %13 = call i32 @test_ptr(ptr noundef @.str, i32 noundef 2022, ptr noundef @.str.24, ptr noundef %12)
  %14 = icmp ne i32 %13, 0
  br i1 %14, label %15, label %26

15:                                               ; preds = %10
  %16 = load ptr, ptr %3, align 8, !tbaa !12
  %17 = call ptr @EC_GROUP_new_from_ecparameters(ptr noundef %16)
  store ptr %17, ptr %2, align 8, !tbaa !10
  %18 = call i32 @test_ptr(ptr noundef @.str, i32 noundef 2023, ptr noundef @.str.25, ptr noundef %17)
  %19 = icmp ne i32 %18, 0
  br i1 %19, label %20, label %26

20:                                               ; preds = %15
  %21 = load ptr, ptr %1, align 8, !tbaa !10
  %22 = load ptr, ptr %2, align 8, !tbaa !10
  %23 = call i32 @EC_GROUP_cmp(ptr noundef %21, ptr noundef %22, ptr noundef null)
  %24 = call i32 @test_int_eq(ptr noundef @.str, i32 noundef 2024, ptr noundef @.str.26, ptr noundef @.str.27, i32 noundef %23, i32 noundef 0)
  %25 = icmp ne i32 %24, 0
  br i1 %25, label %27, label %26

26:                                               ; preds = %20, %15, %10, %0
  br label %67

27:                                               ; preds = %20
  %28 = load ptr, ptr %1, align 8, !tbaa !10
  call void @EC_GROUP_free(ptr noundef %28)
  store ptr null, ptr %1, align 8, !tbaa !10
  %29 = call ptr @EC_GROUP_new_by_curve_name(i32 noundef 716)
  store ptr %29, ptr %1, align 8, !tbaa !10
  %30 = call i32 @test_ptr(ptr noundef @.str, i32 noundef 2031, ptr noundef @.str.28, ptr noundef %29)
  %31 = icmp ne i32 %30, 0
  br i1 %31, label %32, label %47

32:                                               ; preds = %27
  %33 = load ptr, ptr %1, align 8, !tbaa !10
  %34 = call i32 @i2d_ECPKParameters(ptr noundef %33, ptr noundef %4)
  store i32 %34, ptr %6, align 4, !tbaa !16
  %35 = icmp sge i32 %34, 0
  %36 = zext i1 %35 to i32
  %37 = icmp ne i32 %36, 0
  %38 = zext i1 %37 to i32
  %39 = call i32 @test_true(ptr noundef @.str, i32 noundef 2032, ptr noundef @.str.29, i32 noundef %38)
  %40 = icmp ne i32 %39, 0
  br i1 %40, label %41, label %47

41:                                               ; preds = %32
  %42 = load ptr, ptr %4, align 8, !tbaa !14
  %43 = load i32, ptr %6, align 4, !tbaa !16
  %44 = sext i32 %43 to i64
  %45 = call i32 @test_mem_eq(ptr noundef @.str, i32 noundef 2033, ptr noundef @.str.30, ptr noundef @.str.31, ptr noundef %42, i64 noundef %44, ptr noundef @p521_named, i64 noundef 7)
  %46 = icmp ne i32 %45, 0
  br i1 %46, label %48, label %47

47:                                               ; preds = %41, %32, %27
  br label %67

48:                                               ; preds = %41
  %49 = load ptr, ptr %4, align 8, !tbaa !14
  call void @CRYPTO_free(ptr noundef %49, ptr noundef @.str, i32 noundef 2036)
  store ptr null, ptr %4, align 8, !tbaa !14
  %50 = load ptr, ptr %1, align 8, !tbaa !10
  call void @EC_GROUP_set_asn1_flag(ptr noundef %50, i32 noundef 0)
  %51 = load ptr, ptr %1, align 8, !tbaa !10
  %52 = call i32 @i2d_ECPKParameters(ptr noundef %51, ptr noundef %4)
  store i32 %52, ptr %6, align 4, !tbaa !16
  %53 = icmp sge i32 %52, 0
  %54 = zext i1 %53 to i32
  %55 = icmp ne i32 %54, 0
  %56 = zext i1 %55 to i32
  %57 = call i32 @test_true(ptr noundef @.str, i32 noundef 2044, ptr noundef @.str.29, i32 noundef %56)
  %58 = icmp ne i32 %57, 0
  br i1 %58, label %59, label %65

59:                                               ; preds = %48
  %60 = load ptr, ptr %4, align 8, !tbaa !14
  %61 = load i32, ptr %6, align 4, !tbaa !16
  %62 = sext i32 %61 to i64
  %63 = call i32 @test_mem_eq(ptr noundef @.str, i32 noundef 2045, ptr noundef @.str.30, ptr noundef @.str.32, ptr noundef %60, i64 noundef %62, ptr noundef @p521_explicit, i64 noundef 455)
  %64 = icmp ne i32 %63, 0
  br i1 %64, label %66, label %65

65:                                               ; preds = %59, %48
  br label %67

66:                                               ; preds = %59
  store i32 1, ptr %5, align 4, !tbaa !16
  br label %67

67:                                               ; preds = %66, %65, %47, %26
  %68 = load ptr, ptr %1, align 8, !tbaa !10
  call void @EC_GROUP_free(ptr noundef %68)
  %69 = load ptr, ptr %2, align 8, !tbaa !10
  call void @EC_GROUP_free(ptr noundef %69)
  %70 = load ptr, ptr %3, align 8, !tbaa !12
  call void @ECPARAMETERS_free(ptr noundef %70)
  %71 = load ptr, ptr %4, align 8, !tbaa !14
  call void @CRYPTO_free(ptr noundef %71, ptr noundef @.str, i32 noundef 2053)
  %72 = load i32, ptr %5, align 4, !tbaa !16
  call void @llvm.lifetime.end.p0(i64 4, ptr %6) #7
  call void @llvm.lifetime.end.p0(i64 4, ptr %5) #7
  call void @llvm.lifetime.end.p0(i64 8, ptr %4) #7
  call void @llvm.lifetime.end.p0(i64 8, ptr %3) #7
  call void @llvm.lifetime.end.p0(i64 8, ptr %2) #7
  call void @llvm.lifetime.end.p0(i64 8, ptr %1) #7
  ret i32 %72
}