; Function Attrs: nounwind uwtable
define internal range(i32 0, 2) i32 @parameter_test() #0 {
  %1 = alloca ptr, align 8
  call void @llvm.lifetime.start.p0(i64 8, ptr nonnull %1) #7
  store ptr null, ptr %1, align 8, !tbaa !10
  %2 = tail call ptr @EC_GROUP_new_by_curve_name(i32 noundef 715) #7
  %3 = tail call i32 @test_ptr(ptr noundef nonnull @.str, i32 noundef 2021, ptr noundef nonnull @.str.23, ptr noundef %2) #7
  %.not = icmp eq i32 %3, 0
  br i1 %.not, label %35, label %4

4:                                                ; preds = %0
  %5 = tail call ptr @EC_GROUP_get_ecparameters(ptr noundef %2, ptr noundef null) #7
  %6 = tail call i32 @test_ptr(ptr noundef nonnull @.str, i32 noundef 2022, ptr noundef nonnull @.str.24, ptr noundef %5) #7
  %.not16 = icmp eq i32 %6, 0
  br i1 %.not16, label %35, label %7

7:                                                ; preds = %4
  %8 = tail call ptr @EC_GROUP_new_from_ecparameters(ptr noundef %5) #7
  %9 = tail call i32 @test_ptr(ptr noundef nonnull @.str, i32 noundef 2023, ptr noundef nonnull @.str.25, ptr noundef %8) #7
  %.not17 = icmp eq i32 %9, 0
  br i1 %.not17, label %35, label %10

10:                                               ; preds = %7
  %11 = tail call i32 @EC_GROUP_cmp(ptr noundef %2, ptr noundef %8, ptr noundef null) #7
  %12 = tail call i32 @test_int_eq(ptr noundef nonnull @.str, i32 noundef 2024, ptr noundef nonnull @.str.26, ptr noundef nonnull @.str.27, i32 noundef %11, i32 noundef 0) #7
  %.not18 = icmp eq i32 %12, 0
  br i1 %.not18, label %35, label %13

13:                                               ; preds = %10
  tail call void @EC_GROUP_free(ptr noundef %2) #7
  %14 = tail call ptr @EC_GROUP_new_by_curve_name(i32 noundef 716) #7
  %15 = tail call i32 @test_ptr(ptr noundef nonnull @.str, i32 noundef 2031, ptr noundef nonnull @.str.28, ptr noundef %14) #7
  %.not19 = icmp eq i32 %15, 0
  br i1 %.not19, label %35, label %16

16:                                               ; preds = %13
  %17 = call i32 @i2d_ECPKParameters(ptr noundef %14, ptr noundef nonnull %1) #7
  %18 = icmp sgt i32 %17, -1
  %19 = zext i1 %18 to i32
  %20 = call i32 @test_true(ptr noundef nonnull @.str, i32 noundef 2032, ptr noundef nonnull @.str.29, i32 noundef %19) #7
  %.not20 = icmp eq i32 %20, 0
  br i1 %.not20, label %35, label %21

21:                                               ; preds = %16
  %22 = load ptr, ptr %1, align 8, !tbaa !10
  %23 = sext i32 %17 to i64
  %24 = call i32 @test_mem_eq(ptr noundef nonnull @.str, i32 noundef 2033, ptr noundef nonnull @.str.30, ptr noundef nonnull @.str.31, ptr noundef %22, i64 noundef %23, ptr noundef nonnull @p521_named, i64 noundef 7) #7
  %.not21 = icmp eq i32 %24, 0
  br i1 %.not21, label %35, label %25

25:                                               ; preds = %21
  %26 = load ptr, ptr %1, align 8, !tbaa !10
  call void @CRYPTO_free(ptr noundef %26, ptr noundef nonnull @.str, i32 noundef 2036) #7
  store ptr null, ptr %1, align 8, !tbaa !10
  call void @EC_GROUP_set_asn1_flag(ptr noundef %14, i32 noundef 0) #7
  %27 = call i32 @i2d_ECPKParameters(ptr noundef %14, ptr noundef nonnull %1) #7
  %28 = icmp sgt i32 %27, -1
  %29 = zext i1 %28 to i32
  %30 = call i32 @test_true(ptr noundef nonnull @.str, i32 noundef 2044, ptr noundef nonnull @.str.29, i32 noundef %29) #7
  %.not22 = icmp eq i32 %30, 0
  br i1 %.not22, label %35, label %31

31:                                               ; preds = %25
  %32 = load ptr, ptr %1, align 8, !tbaa !10
  %33 = sext i32 %27 to i64
  %34 = call i32 @test_mem_eq(ptr noundef nonnull @.str, i32 noundef 2045, ptr noundef nonnull @.str.30, ptr noundef nonnull @.str.32, ptr noundef %32, i64 noundef %33, ptr noundef nonnull @p521_explicit, i64 noundef 455) #7
  %.not23 = icmp ne i32 %34, 0
  %spec.select = zext i1 %.not23 to i32
  br label %35

35:                                               ; preds = %31, %25, %13, %16, %21, %0, %4, %7, %10
  %.015 = phi ptr [ %14, %25 ], [ %14, %21 ], [ %14, %16 ], [ %14, %13 ], [ %2, %10 ], [ %2, %7 ], [ %2, %4 ], [ %2, %0 ], [ %14, %31 ]
  %.014 = phi ptr [ %8, %25 ], [ %8, %21 ], [ %8, %16 ], [ %8, %13 ], [ %8, %10 ], [ %8, %7 ], [ null, %4 ], [ null, %0 ], [ %8, %31 ]
  %.013 = phi ptr [ %5, %25 ], [ %5, %21 ], [ %5, %16 ], [ %5, %13 ], [ %5, %10 ], [ %5, %7 ], [ %5, %4 ], [ null, %0 ], [ %5, %31 ]
  %.0 = phi i32 [ 0, %25 ], [ 0, %21 ], [ 0, %16 ], [ 0, %13 ], [ 0, %10 ], [ 0, %7 ], [ 0, %4 ], [ 0, %0 ], [ %spec.select, %31 ]
  call void @EC_GROUP_free(ptr noundef %.015) #7
  call void @EC_GROUP_free(ptr noundef %.014) #7
  call void @ECPARAMETERS_free(ptr noundef %.013) #7
  %36 = load ptr, ptr %1, align 8, !tbaa !10
  call void @CRYPTO_free(ptr noundef %36, ptr noundef nonnull @.str, i32 noundef 2053) #7
  call void @llvm.lifetime.end.p0(i64 8, ptr nonnull %1) #7
  ret i32 %.0
}